; Function Attrs: mustprogress uwtable
define void @_ZN2cv3hal5not8uEPKhmS2_mPhmiiPv(ptr nocapture noundef readonly %0, i64 noundef %1, ptr nocapture noundef readnone %2, i64 noundef %3, ptr nocapture noundef writeonly %4, i64 noundef %5, i32 noundef %6, i32 noundef %7, ptr nocapture noundef readnone %8) local_unnamed_addr #0 personality ptr @__gxx_personality_v0 {
  %10 = alloca %"class.cv::utils::trace::details::Region", align 8
  %11 = alloca %"class.cv::utils::trace::details::Region", align 8
  call void @_ZN2cv5utils5trace7details6RegionC1ERKNS3_21LocationStaticStorageE(ptr noundef nonnull align 8 dereferenceable(12) %11, ptr noundef nonnull align 8 dereferenceable(32) @_ZZN2cv3hal5not8uEPKhmS2_mPhmiiPvE25__cv_trace_location_fn571)
  call void @llvm.lifetime.start.p0(i64 16, ptr nonnull %10)
  invoke void @_ZN2cv5utils5trace7details6RegionC1ERKNS3_21LocationStaticStorageE(ptr noundef nonnull align 8 dereferenceable(12) %10, ptr noundef nonnull align 8 dereferenceable(32) @_ZZN2cv3hal12cpu_baseline5not8uEPKhmS3_mPhmiiE25__cv_trace_location_fn564)
          to label %.noexc unwind label %34

.noexc:                                           ; preds = %9
  %.not23.i.i = icmp ne i32 %7, 0
  %12 = icmp sgt i32 %6, 0
  %or.cond.i.i = and i1 %12, %.not23.i.i
  br i1 %or.cond.i.i, label %.preheader.us.preheader.i.i, label %_ZN2cv3hal12cpu_baselineL8bin_loopINS1_6op_notEhNS_12hal_baseline5v_regIhLi16EEEEEvPKT0_mS9_mPS7_mii.exit.i

.preheader.us.preheader.i.i:                      ; preds = %.noexc
  %wide.trip.count.i.i = zext nneg i32 %6 to i64
  br label %.preheader.us.i.i

.preheader.us.i.i:                                ; preds = %._crit_edge.us.i.i, %.preheader.us.preheader.i.i
  %.in.i.i = phi i32 [ %18, %._crit_edge.us.i.i ], [ %7, %.preheader.us.preheader.i.i ]
  %.01925.us.i.i = phi ptr [ %19, %._crit_edge.us.i.i ], [ %0, %.preheader.us.preheader.i.i ]
  %.02024.us.i.i = phi ptr [ %20, %._crit_edge.us.i.i ], [ %4, %.preheader.us.preheader.i.i ]
  br label %13

13:                                               ; preds = %13, %.preheader.us.i.i
  %indvars.iv.i.i = phi i64 [ 0, %.preheader.us.i.i ], [ %indvars.iv.next.i.i, %13 ]
  %14 = getelementptr inbounds i8, ptr %.01925.us.i.i, i64 %indvars.iv.i.i
  %15 = load i8, ptr %14, align 1
  %16 = xor i8 %15, -1
  %17 = getelementptr inbounds i8, ptr %.02024.us.i.i, i64 %indvars.iv.i.i
  store i8 %16, ptr %17, align 1
  %indvars.iv.next.i.i = add nuw nsw i64 %indvars.iv.i.i, 1
  %exitcond.not.i.i = icmp eq i64 %indvars.iv.next.i.i, %wide.trip.count.i.i
  br i1 %exitcond.not.i.i, label %._crit_edge.us.i.i, label %13, !llvm.loop !86

._crit_edge.us.i.i:                               ; preds = %13
  %18 = add nsw i32 %.in.i.i, -1
  %19 = getelementptr inbounds i8, ptr %.01925.us.i.i, i64 %1
  %20 = getelementptr inbounds i8, ptr %.02024.us.i.i, i64 %5
  %.not.us.i.i = icmp eq i32 %18, 0
  br i1 %.not.us.i.i, label %_ZN2cv3hal12cpu_baselineL8bin_loopINS1_6op_notEhNS_12hal_baseline5v_regIhLi16EEEEEvPKT0_mS9_mPS7_mii.exit.i, label %.preheader.us.i.i, !llvm.loop !87

_ZN2cv3hal12cpu_baselineL8bin_loopINS1_6op_notEhNS_12hal_baseline5v_regIhLi16EEEEEvPKT0_mS9_mPS7_mii.exit.i: ; preds = %._crit_edge.us.i.i, %.noexc
  %21 = getelementptr inbounds i8, ptr %10, i64 8
  %22 = load i32, ptr %21, align 8
  %.not.i.i = icmp eq i32 %22, 0
  br i1 %.not.i.i, label %27, label %23

23:                                               ; preds = %_ZN2cv3hal12cpu_baselineL8bin_loopINS1_6op_notEhNS_12hal_baseline5v_regIhLi16EEEEEvPKT0_mS9_mPS7_mii.exit.i
  invoke void @_ZN2cv5utils5trace7details6Region7destroyEv(ptr noundef nonnull align 8 dereferenceable(12) %10)
          to label %27 unwind label %24

24:                                               ; preds = %23
  %25 = landingpad { ptr, i32 }
          catch ptr null
  %26 = extractvalue { ptr, i32 } %25, 0
  call void @__clang_call_terminate(ptr %26) #11
  unreachable

27:                                               ; preds = %23, %_ZN2cv3hal12cpu_baselineL8bin_loopINS1_6op_notEhNS_12hal_baseline5v_regIhLi16EEEEEvPKT0_mS9_mPS7_mii.exit.i
  call void @llvm.lifetime.end.p0(i64 16, ptr nonnull %10)
  %28 = getelementptr inbounds i8, ptr %11, i64 8
  %29 = load i32, ptr %28, align 8
  %.not.i = icmp eq i32 %29, 0
  br i1 %.not.i, label %_ZN2cv5utils5trace7details6RegionD2Ev.exit, label %30

30:                                               ; preds = %27
  invoke void @_ZN2cv5utils5trace7details6Region7destroyEv(ptr noundef nonnull align 8 dereferenceable(12) %11)
          to label %_ZN2cv5utils5trace7details6RegionD2Ev.exit unwind label %31

31:                                               ; preds = %30
  %32 = landingpad { ptr, i32 }
          catch ptr null
  %33 = extractvalue { ptr, i32 } %32, 0
  call void @__clang_call_terminate(ptr %33) #11
  unreachable

_ZN2cv5utils5trace7details6RegionD2Ev.exit:       ; preds = %27, %30
  ret void

34:                                               ; preds = %9
  %35 = landingpad { ptr, i32 }
          cleanup
  call void @_ZN2cv5utils5trace7details6RegionD2Ev(ptr noundef nonnull align 8 dereferenceable(12) %11) #12
  resume { ptr, i32 } %35
}